target datalayout = "e-m:e-p270:32:32-p271:32:32-p272:64:64-i64:64-i128:128-f80:128-n8:16:32:64-S128"
target triple = "x86_64-pc-linux-gnu"

%"class.cv::Mat" = type { i32, i32, i32, i32, ptr, ptr, ptr, ptr, ptr, ptr, %"struct.cv::MatSize", %"struct.cv::MatStep" }
%"struct.cv::MatSize" = type { ptr }
%"struct.cv::MatStep" = type { ptr, [2 x i64] }
%"class.cv::AutoBuffer" = type { ptr, i64, [72 x %"class.cv::Rect_"] }
%"class.cv::Rect_" = type { i32, i32, i32, i32 }
%"class.std::vector" = type { %"struct.std::_Vector_base" }
%"struct.std::_Vector_base" = type { %"struct.std::_Vector_base<int, std::allocator<int>>::_Vector_impl" }
%"struct.std::_Vector_base<int, std::allocator<int>>::_Vector_impl" = type { %"struct.std::_Vector_base<int, std::allocator<int>>::_Vector_impl_data" }
%"struct.std::_Vector_base<int, std::allocator<int>>::_Vector_impl_data" = type { ptr, ptr, ptr }
%"class.std::vector.4" = type { %"struct.std::_Vector_base.5" }
%"struct.std::_Vector_base.5" = type { %"struct.std::_Vector_base<std::pair<int, int>, std::allocator<std::pair<int, int>>>::_Vector_impl" }
%"struct.std::_Vector_base<std::pair<int, int>, std::allocator<std::pair<int, int>>>::_Vector_impl" = type { %"struct.std::_Vector_base<std::pair<int, int>, std::allocator<std::pair<int, int>>>::_Vector_impl_data" }
%"struct.std::_Vector_base<std::pair<int, int>, std::allocator<std::pair<int, int>>>::_Vector_impl_data" = type { ptr, ptr, ptr }
%"class.cv::AutoBuffer.9" = type { ptr, i64, [264 x i32] }
%"class.cv::AutoBuffer.10" = type { ptr, i64, [1032 x i8] }
%"class.std::vector.11" = type { %"struct.std::_Vector_base.12" }
%"struct.std::_Vector_base.12" = type { %"struct.std::_Vector_base<cv::AutoBuffer<int>, std::allocator<cv::AutoBuffer<int>>>::_Vector_impl" }
%"struct.std::_Vector_base<cv::AutoBuffer<int>, std::allocator<cv::AutoBuffer<int>>>::_Vector_impl" = type { %"struct.std::_Vector_base<cv::AutoBuffer<int>, std::allocator<cv::AutoBuffer<int>>>::_Vector_impl_data" }
%"struct.std::_Vector_base<cv::AutoBuffer<int>, std::allocator<cv::AutoBuffer<int>>>::_Vector_impl_data" = type { ptr, ptr, ptr }
%"class.cv::ximgproc::ScanSegmentImpl" = type { %"class.cv::ximgproc::ScanSegment", float, i32, i32, i32, i32, i8, i32, i32, i32, float, i32, i32, float, float, i32, i32, %"class.cv::AutoBuffer", %"class.cv::AutoBuffer", %"class.cv::AutoBuffer", [8 x %"class.cv::Point_"], %"class.std::vector", %"class.std::vector.4", %"class.cv::AutoBuffer.9", %"class.cv::AutoBuffer.9", %"class.cv::AutoBuffer.10", %"class.std::vector.11", ptr, [8 x i32], %"struct.std::atomic", %"struct.std::atomic", %"class.cv::Mat", %"class.cv::Mat" }
%"class.cv::ximgproc::ScanSegment" = type { %"class.cv::Algorithm" }
%"class.cv::Algorithm" = type { ptr }
%"class.cv::Point_" = type { i32, i32 }
%"struct.std::atomic" = type { %"struct.std::__atomic_base" }
%"struct.std::__atomic_base" = type { i32 }
%"class.cv::Vec" = type { %"class.cv::Matx" }
%"class.cv::Matx" = type { [3 x i8] }

; Function Attrs: inlinehint mustprogress nounwind uwtable
define linkonce_odr hidden noundef nonnull align 1 dereferenceable(1) ptr @_ZN2cv3VecIhLi3EEixEi(ptr noundef nonnull align 1 dereferenceable(3) %0, i32 noundef %1) #9 comdat align 2 {
  %3 = alloca ptr, align 8
  %4 = alloca i32, align 4
  store ptr %0, ptr %3, align 8, !tbaa !216
  store i32 %1, ptr %4, align 4, !tbaa !8
  %5 = load ptr, ptr %3, align 8
  %6 = getelementptr inbounds nuw %"class.cv::Matx", ptr %5, i32 0, i32 0
  %7 = load i32, ptr %4, align 4, !tbaa !8
  %8 = sext i32 %7 to i64
  %9 = getelementptr inbounds [3 x i8], ptr %6, i64 0, i64 %8
  ret ptr %9
}

; Function Attrs: inlinehint mustprogress nounwind uwtable
define linkonce_odr hidden noundef ptr @_ZN2cv10AutoBufferIiLm264EE4dataEv(ptr noundef nonnull align 8 dereferenceable(1072) %0) #9 comdat align 2 {
  %2 = alloca ptr, align 8
  store ptr %0, ptr %2, align 8, !tbaa !100
  %3 = load ptr, ptr %2, align 8
  %4 = getelementptr inbounds nuw %"class.cv::AutoBuffer.9", ptr %3, i32 0, i32 0
  %5 = load ptr, ptr %4, align 8, !tbaa !101
  ret ptr %5
}

; Function Attrs: mustprogress uwtable
define hidden void @_ZN2cv8ximgproc15ScanSegmentImpl16calculateClusterEPiS2_ii(ptr noundef nonnull align 8 dereferenceable(7144) %0, ptr noundef %1, ptr noundef %2, i32 noundef %3, i32 noundef %4) #6 align 2 {
  %6 = alloca ptr, align 8
  %7 = alloca ptr, align 8
  %8 = alloca ptr, align 8
  %9 = alloca i32, align 4
  %10 = alloca i32, align 4
  %11 = alloca i32, align 4
  %12 = alloca i32, align 4
  %13 = alloca i32, align 4
  %14 = alloca i32, align 4
  %15 = alloca i32, align 4
  %16 = alloca i32, align 4
  store ptr %0, ptr %6, align 8, !tbaa !20
  store ptr %1, ptr %7, align 8, !tbaa !12
  store ptr %2, ptr %8, align 8, !tbaa !12
  store i32 %3, ptr %9, align 4, !tbaa !8
  store i32 %4, ptr %10, align 4, !tbaa !8
  %17 = load ptr, ptr %6, align 8
  call void @llvm.lifetime.start.p0(i64 4, ptr %11) #3
  store i32 0, ptr %11, align 4, !tbaa !8
  br label %18

18:                                               ; preds = %138, %5
  %19 = load i32, ptr %11, align 4, !tbaa !8
  %20 = icmp slt i32 %19, 8
  br i1 %20, label %22, label %21

21:                                               ; preds = %18
  store i32 2, ptr %12, align 4
  br label %141

22:                                               ; preds = %18
  %23 = load ptr, ptr %8, align 8, !tbaa !12
  %24 = load i32, ptr %23, align 4, !tbaa !8
  %25 = getelementptr inbounds nuw %"class.cv::ximgproc::ScanSegmentImpl", ptr %17, i32 0, i32 8
  %26 = load i32, ptr %25, align 4, !tbaa !66
  %27 = icmp slt i32 %24, %26
  br i1 %27, label %28, label %136

28:                                               ; preds = %22
  call void @llvm.lifetime.start.p0(i64 4, ptr %13) #3
  %29 = load i32, ptr %9, align 4, !tbaa !8
  %30 = getelementptr inbounds nuw %"class.cv::ximgproc::ScanSegmentImpl", ptr %17, i32 0, i32 28
  %31 = load i32, ptr %11, align 4, !tbaa !8
  %32 = sext i32 %31 to i64
  %33 = getelementptr inbounds [8 x i32], ptr %30, i64 0, i64 %32
  %34 = load i32, ptr %33, align 4, !tbaa !8
  %35 = add nsw i32 %29, %34
  store i32 %35, ptr %13, align 4, !tbaa !8
  %36 = load i32, ptr %13, align 4, !tbaa !8
  %37 = icmp sge i32 %36, 0
  br i1 %37, label %38, label %135

38:                                               ; preds = %28
  %39 = load i32, ptr %13, align 4, !tbaa !8
  %40 = getelementptr inbounds nuw %"class.cv::ximgproc::ScanSegmentImpl", ptr %17, i32 0, i32 7
  %41 = load i32, ptr %40, align 8, !tbaa !65
  %42 = icmp slt i32 %39, %41
  br i1 %42, label %43, label %135

43:                                               ; preds = %38
  %44 = getelementptr inbounds nuw %"class.cv::ximgproc::ScanSegmentImpl", ptr %17, i32 0, i32 23
  %45 = call noundef ptr @_ZN2cv10AutoBufferIiLm264EE4dataEv(ptr noundef nonnull align 8 dereferenceable(1072) %44)
  %46 = load i32, ptr %13, align 4, !tbaa !8
  %47 = sext i32 %46 to i64
  %48 = getelementptr inbounds i32, ptr %45, i64 %47
  %49 = load i32, ptr %48, align 4, !tbaa !8
  %50 = icmp eq i32 %49, -2
  br i1 %50, label %51, label %135

51:                                               ; preds = %43
  call void @llvm.lifetime.start.p0(i64 4, ptr %14) #3
  %52 = getelementptr inbounds nuw %"class.cv::ximgproc::ScanSegmentImpl", ptr %17, i32 0, i32 27
  %53 = load ptr, ptr %52, align 8, !tbaa !141
  %54 = load i32, ptr %9, align 4, !tbaa !8
  %55 = sext i32 %54 to i64
  %56 = getelementptr inbounds %"class.cv::Vec", ptr %53, i64 %55
  %57 = call noundef nonnull align 1 dereferenceable(1) ptr @_ZN2cv3VecIhLi3EEixEi(ptr noundef nonnull align 1 dereferenceable(3) %56, i32 noundef 0)
  %58 = load i8, ptr %57, align 1, !tbaa !110
  %59 = zext i8 %58 to i32
  %60 = getelementptr inbounds nuw %"class.cv::ximgproc::ScanSegmentImpl", ptr %17, i32 0, i32 27
  %61 = load ptr, ptr %60, align 8, !tbaa !141
  %62 = load i32, ptr %13, align 4, !tbaa !8
  %63 = sext i32 %62 to i64
  %64 = getelementptr inbounds %"class.cv::Vec", ptr %61, i64 %63
  %65 = call noundef nonnull align 1 dereferenceable(1) ptr @_ZN2cv3VecIhLi3EEixEi(ptr noundef nonnull align 1 dereferenceable(3) %64, i32 noundef 0)
  %66 = load i8, ptr %65, align 1, !tbaa !110
  %67 = zext i8 %66 to i32
  %68 = sub nsw i32 %59, %67
  store i32 %68, ptr %14, align 4, !tbaa !8
  call void @llvm.lifetime.start.p0(i64 4, ptr %15) #3
  %69 = getelementptr inbounds nuw %"class.cv::ximgproc::ScanSegmentImpl", ptr %17, i32 0, i32 27
  %70 = load ptr, ptr %69, align 8, !tbaa !141
  %71 = load i32, ptr %9, align 4, !tbaa !8
  %72 = sext i32 %71 to i64
  %73 = getelementptr inbounds %"class.cv::Vec", ptr %70, i64 %72
  %74 = call noundef nonnull align 1 dereferenceable(1) ptr @_ZN2cv3VecIhLi3EEixEi(ptr noundef nonnull align 1 dereferenceable(3) %73, i32 noundef 1)
  %75 = load i8, ptr %74, align 1, !tbaa !110
  %76 = zext i8 %75 to i32
  %77 = getelementptr inbounds nuw %"class.cv::ximgproc::ScanSegmentImpl", ptr %17, i32 0, i32 27
  %78 = load ptr, ptr %77, align 8, !tbaa !141
  %79 = load i32, ptr %13, align 4, !tbaa !8
  %80 = sext i32 %79 to i64
  %81 = getelementptr inbounds %"class.cv::Vec", ptr %78, i64 %80
  %82 = call noundef nonnull align 1 dereferenceable(1) ptr @_ZN2cv3VecIhLi3EEixEi(ptr noundef nonnull align 1 dereferenceable(3) %81, i32 noundef 1)
  %83 = load i8, ptr %82, align 1, !tbaa !110
  %84 = zext i8 %83 to i32
  %85 = sub nsw i32 %76, %84
  store i32 %85, ptr %15, align 4, !tbaa !8
  call void @llvm.lifetime.start.p0(i64 4, ptr %16) #3
  %86 = getelementptr inbounds nuw %"class.cv::ximgproc::ScanSegmentImpl", ptr %17, i32 0, i32 27
  %87 = load ptr, ptr %86, align 8, !tbaa !141
  %88 = load i32, ptr %9, align 4, !tbaa !8
  %89 = sext i32 %88 to i64
  %90 = getelementptr inbounds %"class.cv::Vec", ptr %87, i64 %89
  %91 = call noundef nonnull align 1 dereferenceable(1) ptr @_ZN2cv3VecIhLi3EEixEi(ptr noundef nonnull align 1 dereferenceable(3) %90, i32 noundef 2)
  %92 = load i8, ptr %91, align 1, !tbaa !110
  %93 = zext i8 %92 to i32
  %94 = getelementptr inbounds nuw %"class.cv::ximgproc::ScanSegmentImpl", ptr %17, i32 0, i32 27
  %95 = load ptr, ptr %94, align 8, !tbaa !141
  %96 = load i32, ptr %13, align 4, !tbaa !8
  %97 = sext i32 %96 to i64
  %98 = getelementptr inbounds %"class.cv::Vec", ptr %95, i64 %97
  %99 = call noundef nonnull align 1 dereferenceable(1) ptr @_ZN2cv3VecIhLi3EEixEi(ptr noundef nonnull align 1 dereferenceable(3) %98, i32 noundef 2)
  %100 = load i8, ptr %99, align 1, !tbaa !110
  %101 = zext i8 %100 to i32
  %102 = sub nsw i32 %93, %101
  store i32 %102, ptr %16, align 4, !tbaa !8
  %103 = load i32, ptr %14, align 4, !tbaa !8
  %104 = load i32, ptr %14, align 4, !tbaa !8
  %105 = mul nsw i32 %103, %104
  %106 = load i32, ptr %15, align 4, !tbaa !8
  %107 = load i32, ptr %15, align 4, !tbaa !8
  %108 = mul nsw i32 %106, %107
  %109 = add nsw i32 %105, %108
  %110 = load i32, ptr %16, align 4, !tbaa !8
  %111 = load i32, ptr %16, align 4, !tbaa !8
  %112 = mul nsw i32 %110, %111
  %113 = add nsw i32 %109, %112
  %114 = getelementptr inbounds nuw %"class.cv::ximgproc::ScanSegmentImpl", ptr %17, i32 0, i32 10
  %115 = load float, ptr %114, align 4, !tbaa !83
  %116 = fptosi float %115 to i32
  %117 = icmp sle i32 %113, %116
  br i1 %117, label %118, label %134

118:                                              ; preds = %51
  %119 = load i32, ptr %10, align 4, !tbaa !8
  %120 = getelementptr inbounds nuw %"class.cv::ximgproc::ScanSegmentImpl", ptr %17, i32 0, i32 23
  %121 = call noundef ptr @_ZN2cv10AutoBufferIiLm264EE4dataEv(ptr noundef nonnull align 8 dereferenceable(1072) %120)
  %122 = load i32, ptr %13, align 4, !tbaa !8
  %123 = sext i32 %122 to i64
  %124 = getelementptr inbounds i32, ptr %121, i64 %123
  store i32 %119, ptr %124, align 4, !tbaa !8
  %125 = load i32, ptr %13, align 4, !tbaa !8
  %126 = load ptr, ptr %7, align 8, !tbaa !12
  %127 = load ptr, ptr %8, align 8, !tbaa !12
  %128 = load i32, ptr %127, align 4, !tbaa !8
  %129 = sext i32 %128 to i64
  %130 = getelementptr inbounds i32, ptr %126, i64 %129
  store i32 %125, ptr %130, align 4, !tbaa !8
  %131 = load ptr, ptr %8, align 8, !tbaa !12
  %132 = load i32, ptr %131, align 4, !tbaa !8
  %133 = add nsw i32 %132, 1
  store i32 %133, ptr %131, align 4, !tbaa !8
  br label %134

134:                                              ; preds = %118, %51
  call void @llvm.lifetime.end.p0(i64 4, ptr %16) #3
  call void @llvm.lifetime.end.p0(i64 4, ptr %15) #3
  call void @llvm.lifetime.end.p0(i64 4, ptr %14) #3
  br label %135

135:                                              ; preds = %134, %43, %38, %28
  call void @llvm.lifetime.end.p0(i64 4, ptr %13) #3
  br label %137

136:                                              ; preds = %22
  store i32 2, ptr %12, align 4
  br label %141

137:                                              ; preds = %135
  br label %138

138:                                              ; preds = %137
  %139 = load i32, ptr %11, align 4, !tbaa !8
  %140 = add nsw i32 %139, 1
  store i32 %140, ptr %11, align 4, !tbaa !8
  br label %18, !llvm.loop !215

141:                                              ; preds = %136, %21
  call void @llvm.lifetime.end.p0(i64 4, ptr %11) #3
  br label %142

142:                                              ; preds = %141
  ret void
}