; Function Attrs: mustprogress nofree norecurse nosync nounwind memory(readwrite, inaccessiblemem: none) uwtable
define hidden void @_ZN2cv8ximgproc15ScanSegmentImpl16calculateClusterEPiS2_ii(ptr noundef nonnull readonly align 8 captures(none) dereferenceable(7144) %0, ptr noundef writeonly captures(none) %1, ptr noundef captures(none) %2, i32 noundef %3, i32 noundef %4) local_unnamed_addr #17 align 2 {
  %6 = getelementptr inbounds nuw i8, ptr %0, i64 36
  %7 = getelementptr inbounds nuw i8, ptr %0, i64 6912
  %8 = getelementptr inbounds nuw i8, ptr %0, i64 32
  %9 = getelementptr inbounds nuw i8, ptr %0, i64 3688
  %10 = load ptr, ptr %9, align 8
  %11 = getelementptr inbounds nuw i8, ptr %0, i64 6904
  %12 = load ptr, ptr %11, align 8
  %13 = sext i32 %3 to i64
  %14 = getelementptr inbounds %"class.cv::Vec", ptr %12, i64 %13
  %15 = getelementptr inbounds nuw i8, ptr %14, i64 1
  %16 = getelementptr inbounds nuw i8, ptr %14, i64 2
  %17 = getelementptr inbounds nuw i8, ptr %0, i64 44
  %18 = load float, ptr %17, align 4
  %19 = fptosi float %18 to i32
  %.pre = load i32, ptr %2, align 4, !tbaa !76
  br label %20

20:                                               ; preds = %5, %66
  %21 = phi i32 [ %.pre, %5 ], [ %67, %66 ]
  %indvars.iv = phi i64 [ 0, %5 ], [ %indvars.iv.next, %66 ]
  %22 = load i32, ptr %6, align 4, !tbaa !74
  %23 = icmp slt i32 %21, %22
  br i1 %23, label %24, label %68

24:                                               ; preds = %20
  %25 = getelementptr inbounds nuw [8 x i32], ptr %7, i64 0, i64 %indvars.iv
  %26 = load i32, ptr %25, align 4, !tbaa !76
  %27 = add nsw i32 %26, %3
  %28 = icmp sgt i32 %27, -1
  %29 = load i32, ptr %8, align 8
  %30 = icmp slt i32 %27, %29
  %or.cond = select i1 %28, i1 %30, i1 false
  br i1 %or.cond, label %31, label %66

31:                                               ; preds = %24
  %32 = zext nneg i32 %27 to i64
  %33 = getelementptr inbounds nuw i32, ptr %10, i64 %32
  %34 = load i32, ptr %33, align 4, !tbaa !76
  %35 = icmp eq i32 %34, -2
  br i1 %35, label %36, label %66

36:                                               ; preds = %31
  %37 = load i8, ptr %14, align 1, !tbaa !103
  %38 = zext i8 %37 to i32
  %39 = getelementptr inbounds nuw %"class.cv::Vec", ptr %12, i64 %32
  %40 = load i8, ptr %39, align 1, !tbaa !103
  %41 = zext i8 %40 to i32
  %42 = sub nsw i32 %38, %41
  %43 = load i8, ptr %15, align 1, !tbaa !103
  %44 = zext i8 %43 to i32
  %45 = getelementptr inbounds nuw i8, ptr %39, i64 1
  %46 = load i8, ptr %45, align 1, !tbaa !103
  %47 = zext i8 %46 to i32
  %48 = sub nsw i32 %44, %47
  %49 = load i8, ptr %16, align 1, !tbaa !103
  %50 = zext i8 %49 to i32
  %51 = getelementptr inbounds nuw i8, ptr %39, i64 2
  %52 = load i8, ptr %51, align 1, !tbaa !103
  %53 = zext i8 %52 to i32
  %54 = sub nsw i32 %50, %53
  %55 = mul nsw i32 %42, %42
  %56 = mul nsw i32 %48, %48
  %57 = add nuw nsw i32 %56, %55
  %58 = mul nsw i32 %54, %54
  %59 = add nuw nsw i32 %57, %58
  %.not = icmp sgt i32 %59, %19
  br i1 %.not, label %66, label %60

60:                                               ; preds = %36
  store i32 %4, ptr %33, align 4, !tbaa !76
  %61 = load i32, ptr %2, align 4, !tbaa !76
  %62 = sext i32 %61 to i64
  %63 = getelementptr inbounds i32, ptr %1, i64 %62
  store i32 %27, ptr %63, align 4, !tbaa !76
  %64 = load i32, ptr %2, align 4, !tbaa !76
  %65 = add nsw i32 %64, 1
  store i32 %65, ptr %2, align 4, !tbaa !76
  br label %66

66:                                               ; preds = %36, %60, %31, %24
  %67 = phi i32 [ %21, %36 ], [ %65, %60 ], [ %21, %31 ], [ %21, %24 ]
  %indvars.iv.next = add nuw nsw i64 %indvars.iv, 1
  %exitcond.not = icmp eq i64 %indvars.iv.next, 8
  br i1 %exitcond.not, label %68, label %20, !llvm.loop !163

68:                                               ; preds = %20, %66
  ret void
}